target datalayout = "e-m:e-p270:32:32-p271:32:32-p272:64:64-i64:64-i128:128-f80:128-n8:16:32:64-S128"
target triple = "x86_64-pc-linux-gnu"

%struct.png_row_info_struct = type { i32, i64, i8, i8, i8, i8 }

; Function Attrs: nounwind uwtable
define internal void @store4(ptr noundef %0, <2 x i64> noundef %1) #0 {
  %3 = alloca <2 x i64>, align 16
  %4 = alloca <4 x i32>, align 16
  %5 = alloca ptr, align 8
  %6 = alloca <2 x i64>, align 16
  %7 = alloca i32, align 4
  store ptr %0, ptr %5, align 8
  store <2 x i64> %1, ptr %6, align 16
  %8 = load <2 x i64>, ptr %6, align 16
  store <2 x i64> %8, ptr %3, align 16
  %9 = load <2 x i64>, ptr %3, align 16
  %10 = bitcast <2 x i64> %9 to <4 x i32>
  store <4 x i32> %10, ptr %4, align 16
  %11 = load <4 x i32>, ptr %4, align 16
  %12 = extractelement <4 x i32> %11, i32 0
  store i32 %12, ptr %7, align 4
  %13 = load ptr, ptr %5, align 8
  call void @llvm.memcpy.p0.p0.i64(ptr align 1 %13, ptr align 4 %7, i64 4, i1 false)
  ret void
}

; Function Attrs: nounwind uwtable
define internal <2 x i64> @if_then_else(<2 x i64> noundef %0, <2 x i64> noundef %1, <2 x i64> noundef %2) #0 {
  %4 = alloca <2 x i64>, align 16
  %5 = alloca <2 x i64>, align 16
  %6 = alloca <2 x i64>, align 16
  %7 = alloca <2 x i64>, align 16
  %8 = alloca <2 x i64>, align 16
  %9 = alloca <2 x i64>, align 16
  %10 = alloca <2 x i64>, align 16
  %11 = alloca <2 x i64>, align 16
  %12 = alloca <2 x i64>, align 16
  store <2 x i64> %0, ptr %10, align 16
  store <2 x i64> %1, ptr %11, align 16
  store <2 x i64> %2, ptr %12, align 16
  %13 = load <2 x i64>, ptr %10, align 16
  %14 = load <2 x i64>, ptr %11, align 16
  store <2 x i64> %13, ptr %8, align 16
  store <2 x i64> %14, ptr %9, align 16
  %15 = load <2 x i64>, ptr %8, align 16
  %16 = load <2 x i64>, ptr %9, align 16
  %17 = and <2 x i64> %15, %16
  %18 = load <2 x i64>, ptr %10, align 16
  %19 = load <2 x i64>, ptr %12, align 16
  store <2 x i64> %18, ptr %4, align 16
  store <2 x i64> %19, ptr %5, align 16
  %20 = load <2 x i64>, ptr %4, align 16
  %21 = xor <2 x i64> %20, <i64 -1, i64 -1>
  %22 = load <2 x i64>, ptr %5, align 16
  %23 = and <2 x i64> %21, %22
  store <2 x i64> %17, ptr %6, align 16
  store <2 x i64> %23, ptr %7, align 16
  %24 = load <2 x i64>, ptr %6, align 16
  %25 = load <2 x i64>, ptr %7, align 16
  %26 = or <2 x i64> %24, %25
  ret <2 x i64> %26
}

; Function Attrs: nounwind uwtable
define internal <2 x i64> @abs_i16(<2 x i64> noundef %0) #0 {
  %2 = alloca <2 x i64>, align 16
  %3 = alloca <2 x i64>, align 16
  %4 = alloca <2 x i64>, align 16
  %5 = alloca <2 x i64>, align 16
  %6 = alloca <2 x i64>, align 16
  %7 = alloca <2 x i64>, align 16
  %8 = alloca <2 x i64>, align 16
  %9 = alloca <2 x i64>, align 16
  %10 = alloca <2 x i64>, align 16
  %11 = alloca <2 x i64>, align 16
  %12 = alloca <2 x i64>, align 16
  store <2 x i64> %0, ptr %11, align 16
  %13 = load <2 x i64>, ptr %11, align 16
  store <2 x i64> zeroinitializer, ptr %10, align 16
  %14 = load <2 x i64>, ptr %10, align 16
  store <2 x i64> %13, ptr %4, align 16
  store <2 x i64> %14, ptr %5, align 16
  %15 = load <2 x i64>, ptr %5, align 16
  %16 = load <2 x i64>, ptr %4, align 16
  store <2 x i64> %15, ptr %2, align 16
  store <2 x i64> %16, ptr %3, align 16
  %17 = load <2 x i64>, ptr %2, align 16
  %18 = bitcast <2 x i64> %17 to <8 x i16>
  %19 = load <2 x i64>, ptr %3, align 16
  %20 = bitcast <2 x i64> %19 to <8 x i16>
  %21 = icmp sgt <8 x i16> %18, %20
  %22 = sext <8 x i1> %21 to <8 x i16>
  %23 = bitcast <8 x i16> %22 to <2 x i64>
  store <2 x i64> %23, ptr %12, align 16
  %24 = load <2 x i64>, ptr %11, align 16
  %25 = load <2 x i64>, ptr %12, align 16
  store <2 x i64> %24, ptr %8, align 16
  store <2 x i64> %25, ptr %9, align 16
  %26 = load <2 x i64>, ptr %8, align 16
  %27 = load <2 x i64>, ptr %9, align 16
  %28 = xor <2 x i64> %26, %27
  store <2 x i64> %28, ptr %11, align 16
  %29 = load <2 x i64>, ptr %11, align 16
  %30 = load <2 x i64>, ptr %12, align 16
  store <2 x i64> %29, ptr %6, align 16
  store <2 x i64> %30, ptr %7, align 16
  %31 = load <2 x i64>, ptr %6, align 16
  %32 = bitcast <2 x i64> %31 to <8 x i16>
  %33 = load <2 x i64>, ptr %7, align 16
  %34 = bitcast <2 x i64> %33 to <8 x i16>
  %35 = sub <8 x i16> %32, %34
  %36 = bitcast <8 x i16> %35 to <2 x i64>
  store <2 x i64> %36, ptr %11, align 16
  %37 = load <2 x i64>, ptr %11, align 16
  ret <2 x i64> %37
}

; Function Attrs: nounwind uwtable
define internal <2 x i64> @load4(ptr noundef %0) #0 {
  %2 = alloca i32, align 4
  %3 = alloca <4 x i32>, align 16
  %4 = alloca ptr, align 8
  %5 = alloca i32, align 4
  store ptr %0, ptr %4, align 8
  %6 = load ptr, ptr %4, align 8
  call void @llvm.memcpy.p0.p0.i64(ptr align 4 %5, ptr align 1 %6, i64 4, i1 false)
  %7 = load i32, ptr %5, align 4
  store i32 %7, ptr %2, align 4
  %8 = load i32, ptr %2, align 4
  %9 = insertelement <4 x i32> poison, i32 %8, i32 0
  %10 = insertelement <4 x i32> %9, i32 0, i32 1
  %11 = insertelement <4 x i32> %10, i32 0, i32 2
  %12 = insertelement <4 x i32> %11, i32 0, i32 3
  store <4 x i32> %12, ptr %3, align 16
  %13 = load <4 x i32>, ptr %3, align 16
  %14 = bitcast <4 x i32> %13 to <2 x i64>
  ret <2 x i64> %14
}

; Function Attrs: nounwind uwtable
define void @png_read_filter_row_paeth4_sse2(ptr noundef %0, ptr noundef %1, ptr noundef %2) #0 {
  %4 = alloca <2 x i64>, align 16
  %5 = alloca <2 x i64>, align 16
  %6 = alloca <2 x i64>, align 16
  %7 = alloca <2 x i64>, align 16
  %8 = alloca <2 x i64>, align 16
  %9 = alloca <2 x i64>, align 16
  %10 = alloca <2 x i64>, align 16
  %11 = alloca <2 x i64>, align 16
  %12 = alloca <2 x i64>, align 16
  %13 = alloca <2 x i64>, align 16
  %14 = alloca <2 x i64>, align 16
  %15 = alloca <2 x i64>, align 16
  %16 = alloca <2 x i64>, align 16
  %17 = alloca <2 x i64>, align 16
  %18 = alloca <2 x i64>, align 16
  %19 = alloca <2 x i64>, align 16
  %20 = alloca <2 x i64>, align 16
  %21 = alloca <2 x i64>, align 16
  %22 = alloca <2 x i64>, align 16
  %23 = alloca <2 x i64>, align 16
  %24 = alloca <2 x i64>, align 16
  %25 = alloca <2 x i64>, align 16
  %26 = alloca <2 x i64>, align 16
  %27 = alloca ptr, align 8
  %28 = alloca ptr, align 8
  %29 = alloca ptr, align 8
  %30 = alloca i64, align 8
  %31 = alloca <2 x i64>, align 16
  %32 = alloca <2 x i64>, align 16
  %33 = alloca <2 x i64>, align 16
  %34 = alloca <2 x i64>, align 16
  %35 = alloca <2 x i64>, align 16
  %36 = alloca <2 x i64>, align 16
  %37 = alloca <2 x i64>, align 16
  %38 = alloca <2 x i64>, align 16
  %39 = alloca <2 x i64>, align 16
  %40 = alloca <2 x i64>, align 16
  store ptr %0, ptr %27, align 8
  store ptr %1, ptr %28, align 8
  store ptr %2, ptr %29, align 8
  store <2 x i64> zeroinitializer, ptr %26, align 16
  %41 = load <2 x i64>, ptr %26, align 16
  store <2 x i64> %41, ptr %31, align 16
  %42 = load <2 x i64>, ptr %31, align 16
  store <2 x i64> %42, ptr %38, align 16
  %43 = load <2 x i64>, ptr %31, align 16
  store <2 x i64> %43, ptr %40, align 16
  %44 = load ptr, ptr %27, align 8
  %45 = getelementptr inbounds %struct.png_row_info_struct, ptr %44, i32 0, i32 1
  %46 = load i64, ptr %45, align 8
  %47 = add i64 %46, 4
  store i64 %47, ptr %30, align 8
  br label %48

48:                                               ; preds = %51, %3
  %49 = load i64, ptr %30, align 8
  %50 = icmp ugt i64 %49, 4
  br i1 %50, label %51, label %163

51:                                               ; preds = %48
  %52 = load <2 x i64>, ptr %38, align 16
  store <2 x i64> %52, ptr %37, align 16
  %53 = load ptr, ptr %29, align 8
  %54 = call <2 x i64> @load4(ptr noundef %53)
  %55 = load <2 x i64>, ptr %31, align 16
  store <2 x i64> %54, ptr %20, align 16
  store <2 x i64> %55, ptr %21, align 16
  %56 = load <2 x i64>, ptr %20, align 16
  %57 = bitcast <2 x i64> %56 to <16 x i8>
  %58 = load <2 x i64>, ptr %21, align 16
  %59 = bitcast <2 x i64> %58 to <16 x i8>
  %60 = shufflevector <16 x i8> %57, <16 x i8> %59, <16 x i32> <i32 0, i32 16, i32 1, i32 17, i32 2, i32 18, i32 3, i32 19, i32 4, i32 20, i32 5, i32 21, i32 6, i32 22, i32 7, i32 23>
  %61 = bitcast <16 x i8> %60 to <2 x i64>
  store <2 x i64> %61, ptr %38, align 16
  %62 = load <2 x i64>, ptr %40, align 16
  store <2 x i64> %62, ptr %39, align 16
  %63 = load ptr, ptr %28, align 8
  %64 = call <2 x i64> @load4(ptr noundef %63)
  %65 = load <2 x i64>, ptr %31, align 16
  store <2 x i64> %64, ptr %22, align 16
  store <2 x i64> %65, ptr %23, align 16
  %66 = load <2 x i64>, ptr %22, align 16
  %67 = bitcast <2 x i64> %66 to <16 x i8>
  %68 = load <2 x i64>, ptr %23, align 16
  %69 = bitcast <2 x i64> %68 to <16 x i8>
  %70 = shufflevector <16 x i8> %67, <16 x i8> %69, <16 x i32> <i32 0, i32 16, i32 1, i32 17, i32 2, i32 18, i32 3, i32 19, i32 4, i32 20, i32 5, i32 21, i32 6, i32 22, i32 7, i32 23>
  %71 = bitcast <16 x i8> %70 to <2 x i64>
  store <2 x i64> %71, ptr %40, align 16
  %72 = load <2 x i64>, ptr %38, align 16
  %73 = load <2 x i64>, ptr %37, align 16
  store <2 x i64> %72, ptr %16, align 16
  store <2 x i64> %73, ptr %17, align 16
  %74 = load <2 x i64>, ptr %16, align 16
  %75 = bitcast <2 x i64> %74 to <8 x i16>
  %76 = load <2 x i64>, ptr %17, align 16
  %77 = bitcast <2 x i64> %76 to <8 x i16>
  %78 = sub <8 x i16> %75, %77
  %79 = bitcast <8 x i16> %78 to <2 x i64>
  store <2 x i64> %79, ptr %32, align 16
  %80 = load <2 x i64>, ptr %39, align 16
  %81 = load <2 x i64>, ptr %37, align 16
  store <2 x i64> %80, ptr %18, align 16
  store <2 x i64> %81, ptr %19, align 16
  %82 = load <2 x i64>, ptr %18, align 16
  %83 = bitcast <2 x i64> %82 to <8 x i16>
  %84 = load <2 x i64>, ptr %19, align 16
  %85 = bitcast <2 x i64> %84 to <8 x i16>
  %86 = sub <8 x i16> %83, %85
  %87 = bitcast <8 x i16> %86 to <2 x i64>
  store <2 x i64> %87, ptr %33, align 16
  %88 = load <2 x i64>, ptr %32, align 16
  %89 = load <2 x i64>, ptr %33, align 16
  store <2 x i64> %88, ptr %14, align 16
  store <2 x i64> %89, ptr %15, align 16
  %90 = load <2 x i64>, ptr %14, align 16
  %91 = bitcast <2 x i64> %90 to <8 x i16>
  %92 = load <2 x i64>, ptr %15, align 16
  %93 = bitcast <2 x i64> %92 to <8 x i16>
  %94 = add <8 x i16> %91, %93
  %95 = bitcast <8 x i16> %94 to <2 x i64>
  store <2 x i64> %95, ptr %34, align 16
  %96 = load <2 x i64>, ptr %32, align 16
  %97 = call <2 x i64> @abs_i16(<2 x i64> noundef %96)
  store <2 x i64> %97, ptr %32, align 16
  %98 = load <2 x i64>, ptr %33, align 16
  %99 = call <2 x i64> @abs_i16(<2 x i64> noundef %98)
  store <2 x i64> %99, ptr %33, align 16
  %100 = load <2 x i64>, ptr %34, align 16
  %101 = call <2 x i64> @abs_i16(<2 x i64> noundef %100)
  store <2 x i64> %101, ptr %34, align 16
  %102 = load <2 x i64>, ptr %34, align 16
  %103 = load <2 x i64>, ptr %32, align 16
  %104 = load <2 x i64>, ptr %33, align 16
  store <2 x i64> %103, ptr %10, align 16
  store <2 x i64> %104, ptr %11, align 16
  %105 = load <2 x i64>, ptr %10, align 16
  %106 = bitcast <2 x i64> %105 to <8 x i16>
  %107 = load <2 x i64>, ptr %11, align 16
  %108 = bitcast <2 x i64> %107 to <8 x i16>
  %109 = call <8 x i16> @llvm.smin.v8i16(<8 x i16> %106, <8 x i16> %108)
  %110 = bitcast <8 x i16> %109 to <2 x i64>
  store <2 x i64> %102, ptr %12, align 16
  store <2 x i64> %110, ptr %13, align 16
  %111 = load <2 x i64>, ptr %12, align 16
  %112 = bitcast <2 x i64> %111 to <8 x i16>
  %113 = load <2 x i64>, ptr %13, align 16
  %114 = bitcast <2 x i64> %113 to <8 x i16>
  %115 = call <8 x i16> @llvm.smin.v8i16(<8 x i16> %112, <8 x i16> %114)
  %116 = bitcast <8 x i16> %115 to <2 x i64>
  store <2 x i64> %116, ptr %35, align 16
  %117 = load <2 x i64>, ptr %35, align 16
  %118 = load <2 x i64>, ptr %32, align 16
  store <2 x i64> %117, ptr %6, align 16
  store <2 x i64> %118, ptr %7, align 16
  %119 = load <2 x i64>, ptr %6, align 16
  %120 = bitcast <2 x i64> %119 to <8 x i16>
  %121 = load <2 x i64>, ptr %7, align 16
  %122 = bitcast <2 x i64> %121 to <8 x i16>
  %123 = icmp eq <8 x i16> %120, %122
  %124 = sext <8 x i1> %123 to <8 x i16>
  %125 = bitcast <8 x i16> %124 to <2 x i64>
  %126 = load <2 x i64>, ptr %39, align 16
  %127 = load <2 x i64>, ptr %35, align 16
  %128 = load <2 x i64>, ptr %33, align 16
  store <2 x i64> %127, ptr %8, align 16
  store <2 x i64> %128, ptr %9, align 16
  %129 = load <2 x i64>, ptr %8, align 16
  %130 = bitcast <2 x i64> %129 to <8 x i16>
  %131 = load <2 x i64>, ptr %9, align 16
  %132 = bitcast <2 x i64> %131 to <8 x i16>
  %133 = icmp eq <8 x i16> %130, %132
  %134 = sext <8 x i1> %133 to <8 x i16>
  %135 = bitcast <8 x i16> %134 to <2 x i64>
  %136 = load <2 x i64>, ptr %38, align 16
  %137 = load <2 x i64>, ptr %37, align 16
  %138 = call <2 x i64> @if_then_else(<2 x i64> noundef %135, <2 x i64> noundef %136, <2 x i64> noundef %137)
  %139 = call <2 x i64> @if_then_else(<2 x i64> noundef %125, <2 x i64> noundef %126, <2 x i64> noundef %138)
  store <2 x i64> %139, ptr %36, align 16
  %140 = load <2 x i64>, ptr %40, align 16
  %141 = load <2 x i64>, ptr %36, align 16
  store <2 x i64> %140, ptr %24, align 16
  store <2 x i64> %141, ptr %25, align 16
  %142 = load <2 x i64>, ptr %24, align 16
  %143 = bitcast <2 x i64> %142 to <16 x i8>
  %144 = load <2 x i64>, ptr %25, align 16
  %145 = bitcast <2 x i64> %144 to <16 x i8>
  %146 = add <16 x i8> %143, %145
  %147 = bitcast <16 x i8> %146 to <2 x i64>
  store <2 x i64> %147, ptr %40, align 16
  %148 = load ptr, ptr %28, align 8
  %149 = load <2 x i64>, ptr %40, align 16
  %150 = load <2 x i64>, ptr %40, align 16
  store <2 x i64> %149, ptr %4, align 16
  store <2 x i64> %150, ptr %5, align 16
  %151 = load <2 x i64>, ptr %4, align 16
  %152 = bitcast <2 x i64> %151 to <8 x i16>
  %153 = load <2 x i64>, ptr %5, align 16
  %154 = bitcast <2 x i64> %153 to <8 x i16>
  %155 = call <16 x i8> @llvm.x86.sse2.packuswb.128(<8 x i16> %152, <8 x i16> %154)
  %156 = bitcast <16 x i8> %155 to <2 x i64>
  call void @store4(ptr noundef %148, <2 x i64> noundef %156)
  %157 = load ptr, ptr %29, align 8
  %158 = getelementptr inbounds i8, ptr %157, i64 4
  store ptr %158, ptr %29, align 8
  %159 = load ptr, ptr %28, align 8
  %160 = getelementptr inbounds i8, ptr %159, i64 4
  store ptr %160, ptr %28, align 8
  %161 = load i64, ptr %30, align 8
  %162 = sub i64 %161, 4
  store i64 %162, ptr %30, align 8
  br label %48, !llvm.loop !10

163:                                              ; preds = %48
  ret void
}