; Function Attrs: nofree norecurse nosync nounwind memory(argmem: readwrite) uwtable
define void @png_read_filter_row_paeth4_sse2(ptr noundef readonly captures(none) %0, ptr noundef captures(none) %1, ptr noundef readonly captures(none) %2) local_unnamed_addr #0 {
  %4 = getelementptr inbounds nuw i8, ptr %0, i64 8
  %5 = load i64, ptr %4, align 8
  %6 = add i64 %5, 4
  %7 = icmp ugt i64 %6, 4
  br i1 %7, label %.lr.ph, label %._crit_edge

.lr.ph:                                           ; preds = %3, %.lr.ph
  %.067 = phi <2 x i64> [ %32, %.lr.ph ], [ zeroinitializer, %3 ]
  %.05966 = phi ptr [ %38, %.lr.ph ], [ %1, %3 ]
  %.06065 = phi <2 x i64> [ %11, %.lr.ph ], [ zeroinitializer, %3 ]
  %.06164 = phi ptr [ %37, %.lr.ph ], [ %2, %3 ]
  %.06263 = phi i64 [ %39, %.lr.ph ], [ %6, %3 ]
  %.061.val = load i32, ptr %.06164, align 1
  %8 = insertelement <4 x i32> <i32 poison, i32 0, i32 poison, i32 poison>, i32 %.061.val, i64 0
  %9 = bitcast <4 x i32> %8 to <16 x i8>
  %10 = shufflevector <16 x i8> %9, <16 x i8> <i8 0, i8 0, i8 0, i8 0, i8 0, i8 0, i8 0, i8 0, i8 poison, i8 poison, i8 poison, i8 poison, i8 poison, i8 poison, i8 poison, i8 poison>, <16 x i32> <i32 0, i32 16, i32 1, i32 17, i32 2, i32 18, i32 3, i32 19, i32 4, i32 20, i32 5, i32 21, i32 6, i32 22, i32 7, i32 23>
  %11 = bitcast <16 x i8> %10 to <2 x i64>
  %.059.val = load i32, ptr %.05966, align 1
  %12 = insertelement <4 x i32> <i32 poison, i32 0, i32 poison, i32 poison>, i32 %.059.val, i64 0
  %13 = bitcast <4 x i32> %12 to <16 x i8>
  %14 = shufflevector <16 x i8> %13, <16 x i8> <i8 0, i8 0, i8 0, i8 0, i8 0, i8 0, i8 0, i8 0, i8 poison, i8 poison, i8 poison, i8 poison, i8 poison, i8 poison, i8 poison, i8 poison>, <16 x i32> <i32 0, i32 16, i32 1, i32 17, i32 2, i32 18, i32 3, i32 19, i32 4, i32 20, i32 5, i32 21, i32 6, i32 22, i32 7, i32 23>
  %15 = bitcast <16 x i8> %10 to <8 x i16>
  %16 = bitcast <2 x i64> %.06065 to <8 x i16>
  %17 = sub <8 x i16> %15, %16
  %18 = bitcast <2 x i64> %.067 to <8 x i16>
  %19 = sub <8 x i16> %18, %16
  %20 = add <8 x i16> %17, %19
  %21 = tail call <8 x i16> @llvm.abs.v8i16(<8 x i16> %17, i1 false)
  %22 = tail call <8 x i16> @llvm.abs.v8i16(<8 x i16> %19, i1 false)
  %23 = tail call <8 x i16> @llvm.abs.v8i16(<8 x i16> %20, i1 false)
  %24 = tail call <8 x i16> @llvm.smin.v8i16(<8 x i16> %21, <8 x i16> %22)
  %25 = tail call <8 x i16> @llvm.smin.v8i16(<8 x i16> %23, <8 x i16> %24)
  %26 = icmp eq <8 x i16> %25, %21
  %27 = icmp eq <8 x i16> %25, %22
  %28 = select <8 x i1> %27, <8 x i16> %15, <8 x i16> %16
  %29 = select <8 x i1> %26, <8 x i16> %18, <8 x i16> %28
  %30 = bitcast <8 x i16> %29 to <16 x i8>
  %31 = add <16 x i8> %14, %30
  %32 = bitcast <16 x i8> %31 to <2 x i64>
  %33 = bitcast <16 x i8> %31 to <8 x i16>
  %34 = tail call <16 x i8> @llvm.x86.sse2.packuswb.128(<8 x i16> %33, <8 x i16> poison)
  %35 = bitcast <16 x i8> %34 to <4 x i32>
  %36 = extractelement <4 x i32> %35, i64 0
  store i32 %36, ptr %.05966, align 1
  %37 = getelementptr inbounds nuw i8, ptr %.06164, i64 4
  %38 = getelementptr inbounds nuw i8, ptr %.05966, i64 4
  %39 = add i64 %.06263, -4
  %40 = icmp ugt i64 %39, 4
  br i1 %40, label %.lr.ph, label %._crit_edge, !llvm.loop !10

._crit_edge:                                      ; preds = %.lr.ph, %3
  ret void
}